target datalayout = "e-m:e-p270:32:32-p271:32:32-p272:64:64-i64:64-i128:128-f80:128-n8:16:32:64-S128"
target triple = "x86_64-pc-linux-gnu"

%struct._longobject = type { %struct._object, %struct._PyLongValue }
%struct._object = type { %union.anon, ptr }
%union.anon = type { i64 }
%struct._PyLongValue = type { i64, [1 x i32] }
%struct.PyVarObject = type { %struct._object, i64 }
%struct._typeobject = type { %struct.PyVarObject, ptr, i64, i64, ptr, i64, ptr, ptr, ptr, ptr, ptr, ptr, ptr, ptr, ptr, ptr, ptr, ptr, ptr, i64, ptr, ptr, ptr, ptr, i64, ptr, ptr, ptr, ptr, ptr, ptr, ptr, ptr, ptr, i64, ptr, ptr, ptr, ptr, ptr, ptr, ptr, ptr, ptr, ptr, ptr, i32, ptr, ptr, i8, i16 }
%struct.anon = type { i32, i32 }
%struct.s_MergeState = type { i64, i64, ptr, %struct.sortslice, i64, i32, [64 x %struct.s_slice], [256 x ptr], ptr, ptr, ptr }
%struct.sortslice = type { ptr, ptr }
%struct.s_slice = type { %struct.sortslice, i64, i32 }

@_Py_NotImplementedStruct = external global %struct._object, align 8
@PyBool_Type = external global %struct._typeobject, align 8
@_Py_TrueStruct = external global %struct._longobject, align 8

; Function Attrs: alwaysinline nounwind uwtable
define internal i32 @_Py_IsImmortal(ptr noundef %0) #4 {
  %2 = alloca ptr, align 8
  store ptr %0, ptr %2, align 8, !tbaa !36
  %3 = load ptr, ptr %2, align 8, !tbaa !36
  %4 = getelementptr inbounds nuw %struct._object, ptr %3, i32 0, i32 0
  %5 = getelementptr inbounds nuw %struct.anon, ptr %4, i32 0, i32 0
  %6 = load i32, ptr %5, align 8, !tbaa !37
  %7 = icmp slt i32 %6, 0
  %8 = zext i1 %7 to i32
  ret i32 %8
}

; Function Attrs: inlinehint nounwind uwtable
define internal i32 @Py_IS_TYPE(ptr noundef %0, ptr noundef %1) #2 {
  %3 = alloca ptr, align 8
  %4 = alloca ptr, align 8
  store ptr %0, ptr %3, align 8, !tbaa !36
  store ptr %1, ptr %4, align 8, !tbaa !110
  %5 = load ptr, ptr %3, align 8, !tbaa !36
  %6 = call ptr @_Py_TYPE(ptr noundef %5)
  %7 = load ptr, ptr %4, align 8, !tbaa !110
  %8 = icmp eq ptr %6, %7
  %9 = zext i1 %8 to i32
  ret i32 %9
}

; Function Attrs: alwaysinline nounwind uwtable
define internal void @Py_DECREF(ptr noundef %0) #4 {
  %2 = alloca ptr, align 8
  store ptr %0, ptr %2, align 8, !tbaa !36
  %3 = load ptr, ptr %2, align 8, !tbaa !36
  %4 = call i32 @_Py_IsImmortal(ptr noundef %3)
  %5 = icmp ne i32 %4, 0
  br i1 %5, label %6, label %7

6:                                                ; preds = %1
  br label %16

7:                                                ; preds = %1
  %8 = load ptr, ptr %2, align 8, !tbaa !36
  %9 = getelementptr inbounds nuw %struct._object, ptr %8, i32 0, i32 0
  %10 = getelementptr inbounds nuw %struct.anon, ptr %9, i32 0, i32 0
  %11 = load i32, ptr %10, align 8, !tbaa !37
  %12 = add i32 %11, -1
  store i32 %12, ptr %10, align 8, !tbaa !37
  %13 = icmp eq i32 %12, 0
  br i1 %13, label %14, label %16

14:                                               ; preds = %7
  %15 = load ptr, ptr %2, align 8, !tbaa !36
  call void @_Py_Dealloc(ptr noundef %15)
  br label %16

16:                                               ; preds = %6, %14, %7
  ret void
}

; Function Attrs: inlinehint nounwind uwtable
define internal ptr @_Py_TYPE(ptr noundef %0) #2 {
  %2 = alloca ptr, align 8
  store ptr %0, ptr %2, align 8, !tbaa !36
  %3 = load ptr, ptr %2, align 8, !tbaa !36
  %4 = getelementptr inbounds nuw %struct._object, ptr %3, i32 0, i32 1
  %5 = load ptr, ptr %4, align 8, !tbaa !117
  ret ptr %5
}

; Function Attrs: nounwind uwtable
define internal i32 @unsafe_object_compare(ptr noundef %0, ptr noundef %1, ptr noundef %2) #0 {
  %4 = alloca i32, align 4
  %5 = alloca ptr, align 8
  %6 = alloca ptr, align 8
  %7 = alloca ptr, align 8
  %8 = alloca ptr, align 8
  %9 = alloca i32, align 4
  %10 = alloca i32, align 4
  store ptr %0, ptr %5, align 8, !tbaa !36
  store ptr %1, ptr %6, align 8, !tbaa !36
  store ptr %2, ptr %7, align 8, !tbaa !183
  call void @llvm.lifetime.start.p0(i64 8, ptr %8) #8
  call void @llvm.lifetime.start.p0(i64 4, ptr %9) #8
  %11 = load ptr, ptr %5, align 8, !tbaa !36
  %12 = call ptr @_Py_TYPE(ptr noundef %11)
  %13 = getelementptr inbounds nuw %struct._typeobject, ptr %12, i32 0, i32 23
  %14 = load ptr, ptr %13, align 8, !tbaa !133
  %15 = load ptr, ptr %7, align 8, !tbaa !183
  %16 = getelementptr inbounds nuw %struct.s_MergeState, ptr %15, i32 0, i32 9
  %17 = load ptr, ptr %16, align 8, !tbaa !134
  %18 = icmp ne ptr %14, %17
  br i1 %18, label %19, label %23

19:                                               ; preds = %3
  %20 = load ptr, ptr %5, align 8, !tbaa !36
  %21 = load ptr, ptr %6, align 8, !tbaa !36
  %22 = call i32 @PyObject_RichCompareBool(ptr noundef %20, ptr noundef %21, i32 noundef 0)
  store i32 %22, ptr %4, align 4
  store i32 1, ptr %10, align 4
  br label %55

23:                                               ; preds = %3
  %24 = load ptr, ptr %7, align 8, !tbaa !183
  %25 = getelementptr inbounds nuw %struct.s_MergeState, ptr %24, i32 0, i32 9
  %26 = load ptr, ptr %25, align 8, !tbaa !134
  %27 = load ptr, ptr %5, align 8, !tbaa !36
  %28 = load ptr, ptr %6, align 8, !tbaa !36
  %29 = call ptr %26(ptr noundef %27, ptr noundef %28, i32 noundef 0)
  store ptr %29, ptr %8, align 8, !tbaa !36
  %30 = load ptr, ptr %8, align 8, !tbaa !36
  %31 = icmp eq ptr %30, @_Py_NotImplementedStruct
  br i1 %31, label %32, label %37

32:                                               ; preds = %23
  %33 = load ptr, ptr %8, align 8, !tbaa !36
  call void @Py_DECREF(ptr noundef %33)
  %34 = load ptr, ptr %5, align 8, !tbaa !36
  %35 = load ptr, ptr %6, align 8, !tbaa !36
  %36 = call i32 @PyObject_RichCompareBool(ptr noundef %34, ptr noundef %35, i32 noundef 0)
  store i32 %36, ptr %4, align 4
  store i32 1, ptr %10, align 4
  br label %55

37:                                               ; preds = %23
  %38 = load ptr, ptr %8, align 8, !tbaa !36
  %39 = icmp eq ptr %38, null
  br i1 %39, label %40, label %41

40:                                               ; preds = %37
  store i32 -1, ptr %4, align 4
  store i32 1, ptr %10, align 4
  br label %55

41:                                               ; preds = %37
  %42 = load ptr, ptr %8, align 8, !tbaa !36
  %43 = call i32 @Py_IS_TYPE(ptr noundef %42, ptr noundef @PyBool_Type)
  %44 = icmp ne i32 %43, 0
  br i1 %44, label %45, label %49

45:                                               ; preds = %41
  %46 = load ptr, ptr %8, align 8, !tbaa !36
  %47 = icmp eq ptr %46, @_Py_TrueStruct
  %48 = zext i1 %47 to i32
  store i32 %48, ptr %9, align 4, !tbaa !118
  br label %52

49:                                               ; preds = %41
  %50 = load ptr, ptr %8, align 8, !tbaa !36
  %51 = call i32 @PyObject_IsTrue(ptr noundef %50)
  store i32 %51, ptr %9, align 4, !tbaa !118
  br label %52

52:                                               ; preds = %49, %45
  %53 = load ptr, ptr %8, align 8, !tbaa !36
  call void @Py_DECREF(ptr noundef %53)
  %54 = load i32, ptr %9, align 4, !tbaa !118
  store i32 %54, ptr %4, align 4
  store i32 1, ptr %10, align 4
  br label %55

55:                                               ; preds = %52, %40, %32, %19
  call void @llvm.lifetime.end.p0(i64 4, ptr %9) #8
  call void @llvm.lifetime.end.p0(i64 8, ptr %8) #8
  %56 = load i32, ptr %4, align 4
  ret i32 %56
}