; Function Attrs: nounwind uwtable
define internal i32 @unsafe_object_compare(ptr noundef %0, ptr noundef %1, ptr noundef readonly captures(none) %2) #0 {
  %4 = getelementptr i8, ptr %0, i64 8
  %.val = load ptr, ptr %4, align 8, !tbaa !105
  %5 = getelementptr inbounds nuw i8, ptr %.val, i64 200
  %6 = load ptr, ptr %5, align 8, !tbaa !132
  %7 = getelementptr inbounds nuw i8, ptr %2, i64 4160
  %8 = load ptr, ptr %7, align 8, !tbaa !133
  %.not = icmp eq ptr %6, %8
  br i1 %.not, label %11, label %9

9:                                                ; preds = %3
  %10 = tail call i32 @PyObject_RichCompareBool(ptr noundef nonnull %0, ptr noundef %1, i32 noundef 0) #12
  br label %Py_DECREF.exit

11:                                               ; preds = %3
  %12 = tail call ptr %8(ptr noundef nonnull %0, ptr noundef %1, i32 noundef 0) #12
  %13 = icmp eq ptr %12, @_Py_NotImplementedStruct
  br i1 %13, label %14, label %21

14:                                               ; preds = %11
  %15 = load i32, ptr @_Py_NotImplementedStruct, align 8, !tbaa !32
  %.not.i21 = icmp sgt i32 %15, -1
  br i1 %.not.i21, label %16, label %Py_DECREF.exit22

16:                                               ; preds = %14
  %17 = add nsw i32 %15, -1
  store i32 %17, ptr @_Py_NotImplementedStruct, align 8, !tbaa !32
  %18 = icmp eq i32 %17, 0
  br i1 %18, label %19, label %Py_DECREF.exit22

19:                                               ; preds = %16
  tail call void @_Py_Dealloc(ptr noundef nonnull @_Py_NotImplementedStruct) #12
  br label %Py_DECREF.exit22

Py_DECREF.exit22:                                 ; preds = %14, %16, %19
  %20 = tail call i32 @PyObject_RichCompareBool(ptr noundef nonnull %0, ptr noundef %1, i32 noundef 0) #12
  br label %Py_DECREF.exit

21:                                               ; preds = %11
  %22 = icmp eq ptr %12, null
  br i1 %22, label %Py_DECREF.exit, label %23

23:                                               ; preds = %21
  %24 = getelementptr i8, ptr %12, i64 8
  %.val24 = load ptr, ptr %24, align 8, !tbaa !105
  %.not25 = icmp eq ptr %.val24, @PyBool_Type
  br i1 %.not25, label %25, label %28

25:                                               ; preds = %23
  %26 = icmp eq ptr %12, @_Py_TrueStruct
  %27 = zext i1 %26 to i32
  br label %30

28:                                               ; preds = %23
  %29 = tail call i32 @PyObject_IsTrue(ptr noundef nonnull %12) #12
  br label %30

30:                                               ; preds = %28, %25
  %.0 = phi i32 [ %27, %25 ], [ %29, %28 ]
  %31 = load i32, ptr %12, align 8, !tbaa !32
  %.not.i = icmp sgt i32 %31, -1
  br i1 %.not.i, label %32, label %Py_DECREF.exit

32:                                               ; preds = %30
  %33 = add nsw i32 %31, -1
  store i32 %33, ptr %12, align 8, !tbaa !32
  %34 = icmp eq i32 %33, 0
  br i1 %34, label %35, label %Py_DECREF.exit

35:                                               ; preds = %32
  tail call void @_Py_Dealloc(ptr noundef nonnull %12) #12
  br label %Py_DECREF.exit

Py_DECREF.exit:                                   ; preds = %35, %32, %30, %21, %Py_DECREF.exit22, %9
  %.017 = phi i32 [ %10, %9 ], [ %20, %Py_DECREF.exit22 ], [ -1, %21 ], [ %.0, %30 ], [ %.0, %32 ], [ %.0, %35 ]
  ret i32 %.017
}